; ModuleID = '17/1425.c'
source_filename = "17/1425.c"
target datalayout = "e-m:e-p270:32:32-p271:32:32-p272:64:64-i64:64-f80:128-n8:16:32:64-S128"
target triple = "x86_64-pc-linux-gnu"

@.str = private unnamed_addr constant [3 x i8] c"%d\00", align 1
@.str.1 = private unnamed_addr constant [3 x i8] c"%s\00", align 1
@.str.2 = private unnamed_addr constant [4 x i8] c"%s\0A\00", align 1
@.str.3 = private unnamed_addr constant [3 x i8] c"%c\00", align 1
@.str.4 = private unnamed_addr constant [2 x i8] c"\0A\00", align 1

; Function Attrs: noinline nounwind uwtable
define dso_local i32 @main() #0 {
  %1 = alloca i32, align 4
  %2 = alloca i32, align 4
  %3 = alloca i32, align 4
  %4 = alloca i32, align 4
  %5 = alloca i32, align 4
  %6 = alloca i32, align 4
  %7 = alloca i32, align 4
  %8 = alloca i32, align 4
  %9 = alloca i32, align 4
  %10 = alloca i32, align 4
  %11 = alloca i32, align 4
  %12 = alloca [101 x i32], align 16
  %13 = alloca [101 x i8], align 16
  %14 = alloca [101 x i8], align 16
  %15 = alloca [101 x i32], align 16
  store i32 0, i32* %1, align 4
  store i32 0, i32* %10, align 4
  store i32 0, i32* %11, align 4
  %16 = bitcast [101 x i32]* %12 to i8*
  call void @llvm.memset.p0i8.i64(i8* align 16 %16, i8 0, i64 404, i1 false)
  %17 = call i32 (i8*, ...) @__isoc99_scanf(i8* getelementptr inbounds ([3 x i8], [3 x i8]* @.str, i64 0, i64 0), i32* %8)
  store i32 0, i32* %3, align 4
  br label %18

18:                                               ; preds = %134, %0
  %19 = load i32, i32* %3, align 4
  %20 = load i32, i32* %8, align 4
  %21 = icmp slt i32 %19, %20
  br i1 %21, label %22, label %137

22:                                               ; preds = %18
  %23 = bitcast [101 x i32]* %15 to i8*
  call void @llvm.memset.p0i8.i64(i8* align 16 %23, i8 0, i64 404, i1 false)
  store i32 0, i32* %10, align 4
  store i32 0, i32* %11, align 4
  %24 = getelementptr inbounds [101 x i8], [101 x i8]* %13, i64 0, i64 0
  %25 = call i32 (i8*, ...) @__isoc99_scanf(i8* getelementptr inbounds ([3 x i8], [3 x i8]* @.str.1, i64 0, i64 0), i8* %24)
  %26 = getelementptr inbounds [101 x i8], [101 x i8]* %13, i64 0, i64 0
  %27 = call i64 @strlen(i8* %26) #4
  %28 = trunc i64 %27 to i32
  store i32 %28, i32* %9, align 4
  store i32 0, i32* %4, align 4
  br label %29

29:                                               ; preds = %37, %22
  %30 = load i32, i32* %4, align 4
  %31 = load i32, i32* %9, align 4
  %32 = icmp slt i32 %30, %31
  br i1 %32, label %33, label %40

33:                                               ; preds = %29
  %34 = load i32, i32* %4, align 4
  %35 = sext i32 %34 to i64
  %36 = getelementptr inbounds [101 x i8], [101 x i8]* %14, i64 0, i64 %35
  store i8 32, i8* %36, align 1
  br label %37

37:                                               ; preds = %33
  %38 = load i32, i32* %4, align 4
  %39 = add nsw i32 %38, 1
  store i32 %39, i32* %4, align 4
  br label %29

40:                                               ; preds = %29
  %41 = load i32, i32* %9, align 4
  %42 = sext i32 %41 to i64
  %43 = getelementptr inbounds [101 x i8], [101 x i8]* %14, i64 0, i64 %42
  store i8 0, i8* %43, align 1
  store i32 0, i32* %4, align 4
  br label %44

44:                                               ; preds = %112, %40
  %45 = load i32, i32* %4, align 4
  %46 = load i32, i32* %9, align 4
  %47 = icmp slt i32 %45, %46
  br i1 %47, label %48, label %115

48:                                               ; preds = %44
  %49 = load i32, i32* %4, align 4
  %50 = sext i32 %49 to i64
  %51 = getelementptr inbounds [101 x i8], [101 x i8]* %13, i64 0, i64 %50
  %52 = load i8, i8* %51, align 1
  %53 = sext i8 %52 to i32
  %54 = icmp ne i32 %53, 40
  br i1 %54, label %55, label %66

55:                                               ; preds = %48
  %56 = load i32, i32* %4, align 4
  %57 = sext i32 %56 to i64
  %58 = getelementptr inbounds [101 x i8], [101 x i8]* %13, i64 0, i64 %57
  %59 = load i8, i8* %58, align 1
  %60 = sext i8 %59 to i32
  %61 = icmp ne i32 %60, 41
  br i1 %61, label %62, label %66

62:                                               ; preds = %55
  %63 = load i32, i32* %4, align 4
  %64 = sext i32 %63 to i64
  %65 = getelementptr inbounds [101 x i8], [101 x i8]* %14, i64 0, i64 %64
  store i8 32, i8* %65, align 1
  br label %66

66:                                               ; preds = %62, %55, %48
  %67 = load i32, i32* %4, align 4
  %68 = sext i32 %67 to i64
  %69 = getelementptr inbounds [101 x i8], [101 x i8]* %13, i64 0, i64 %68
  %70 = load i8, i8* %69, align 1
  %71 = sext i8 %70 to i32
  %72 = icmp eq i32 %71, 40
  br i1 %72, label %73, label %85

73:                                               ; preds = %66
  %74 = load i32, i32* %10, align 4
  %75 = add nsw i32 %74, 1
  store i32 %75, i32* %10, align 4
  %76 = load i32, i32* %4, align 4
  %77 = sext i32 %76 to i64
  %78 = getelementptr inbounds [101 x i8], [101 x i8]* %14, i64 0, i64 %77
  store i8 36, i8* %78, align 1
  %79 = load i32, i32* %4, align 4
  %80 = load i32, i32* %11, align 4
  %81 = sext i32 %80 to i64
  %82 = getelementptr inbounds [101 x i32], [101 x i32]* %15, i64 0, i64 %81
  store i32 %79, i32* %82, align 4
  %83 = load i32, i32* %11, align 4
  %84 = add nsw i32 %83, 1
  store i32 %84, i32* %11, align 4
  br label %85

85:                                               ; preds = %73, %66
  %86 = load i32, i32* %4, align 4
  %87 = sext i32 %86 to i64
  %88 = getelementptr inbounds [101 x i8], [101 x i8]* %13, i64 0, i64 %87
  %89 = load i8, i8* %88, align 1
  %90 = sext i8 %89 to i32
  %91 = icmp eq i32 %90, 41
  br i1 %91, label %92, label %111

92:                                               ; preds = %85
  %93 = load i32, i32* %10, align 4
  %94 = icmp eq i32 %93, 0
  br i1 %94, label %95, label %99

95:                                               ; preds = %92
  %96 = load i32, i32* %4, align 4
  %97 = sext i32 %96 to i64
  %98 = getelementptr inbounds [101 x i8], [101 x i8]* %14, i64 0, i64 %97
  store i8 63, i8* %98, align 1
  br label %110

99:                                               ; preds = %92
  %100 = load i32, i32* %11, align 4
  %101 = add nsw i32 %100, -1
  store i32 %101, i32* %11, align 4
  %102 = load i32, i32* %11, align 4
  %103 = sext i32 %102 to i64
  %104 = getelementptr inbounds [101 x i32], [101 x i32]* %15, i64 0, i64 %103
  %105 = load i32, i32* %104, align 4
  %106 = sext i32 %105 to i64
  %107 = getelementptr inbounds [101 x i8], [101 x i8]* %14, i64 0, i64 %106
  store i8 32, i8* %107, align 1
  %108 = load i32, i32* %10, align 4
  %109 = add nsw i32 %108, -1
  store i32 %109, i32* %10, align 4
  br label %110

110:                                              ; preds = %99, %95
  br label %111

111:                                              ; preds = %110, %85
  br label %112

112:                                              ; preds = %111
  %113 = load i32, i32* %4, align 4
  %114 = add nsw i32 %113, 1
  store i32 %114, i32* %4, align 4
  br label %44

115:                                              ; preds = %44
  %116 = getelementptr inbounds [101 x i8], [101 x i8]* %13, i64 0, i64 0
  %117 = call i32 (i8*, ...) @printf(i8* getelementptr inbounds ([4 x i8], [4 x i8]* @.str.2, i64 0, i64 0), i8* %116)
  store i32 0, i32* %2, align 4
  br label %118

118:                                              ; preds = %129, %115
  %119 = load i32, i32* %2, align 4
  %120 = load i32, i32* %9, align 4
  %121 = icmp slt i32 %119, %120
  br i1 %121, label %122, label %132

122:                                              ; preds = %118
  %123 = load i32, i32* %2, align 4
  %124 = sext i32 %123 to i64
  %125 = getelementptr inbounds [101 x i8], [101 x i8]* %14, i64 0, i64 %124
  %126 = load i8, i8* %125, align 1
  %127 = sext i8 %126 to i32
  %128 = call i32 (i8*, ...) @printf(i8* getelementptr inbounds ([3 x i8], [3 x i8]* @.str.3, i64 0, i64 0), i32 %127)
  br label %129

129:                                              ; preds = %122
  %130 = load i32, i32* %2, align 4
  %131 = add nsw i32 %130, 1
  store i32 %131, i32* %2, align 4
  br label %118

132:                                              ; preds = %118
  %133 = call i32 (i8*, ...) @printf(i8* getelementptr inbounds ([2 x i8], [2 x i8]* @.str.4, i64 0, i64 0))
  br label %134

134:                                              ; preds = %132
  %135 = load i32, i32* %3, align 4
  %136 = add nsw i32 %135, 1
  store i32 %136, i32* %3, align 4
  br label %18

137:                                              ; preds = %18
  ret i32 0
}

; Function Attrs: argmemonly nounwind willreturn
declare void @llvm.memset.p0i8.i64(i8* nocapture writeonly, i8, i64, i1 immarg) #1

declare dso_local i32 @__isoc99_scanf(i8*, ...) #2

; Function Attrs: nounwind readonly
declare dso_local i64 @strlen(i8*) #3

declare dso_local i32 @printf(i8*, ...) #2


!llvm.module.flags = !{!0}
!llvm.ident = !{!1}

!0 = !{i32 1, !"wchar_size", i32 4}
!1 = !{!"clang version 10.0.0-4ubuntu1 "}
